ccopy_reg
_reconstructor
p0
(cconfig
Config
p1
c__builtin__
object
p2
Ntp3
Rp4
(dp5
S'learning_rate_decay_factor'
p6
F0.7
sS'num_lstm_units'
p7
I128
sS'num_epochs'
p8
I45
sS'fc_kernel_initializer_scale'
p9
F0.08
sS'num_layers'
p10
I1
sS'fc_activity_regularizer_scale'
p11
F0.0
sS'fc_drop_rate'
p12
F0.5
sS'lstm_drop_rate'
p13
F0.3
sS'decay'
p14
F0.9
sS'num_steps_per_decay'
p15
I3000
sS'train_cnn'
p16
I01
sS'dim_attend_layer'
p17
I512
sS'beta2'
p18
F0.999
sS'beta1'
p19
F0.9
sS'summary_dir'
p20
S'./summary/'
p21
sS'cnn'
p22
S'resnet50'
p23
sS'dim_decode_layer'
p24
I256
sS'unet_drop_rate'
p25
F0.5
sS'momentum'
p26
F0.0
sS'num_decode_layers'
p27
I2
sS'optimizer'
p28
S'Adam'
p29
sS'centered'
p30
I01
sS'epsilon'
p31
F1e-06
sS'batch_size'
p32
I32
sS'conv_activity_regularizer_scale'
p33
F0.0
sS'attention_loss_factor'
p34
F0.01
sS'phase'
p35
S'train'
p36
sS'fc_kernel_regularizer_scale'
p37
F0.0001
sS'dim_initalize_layer'
p38
I512
sS'global_step'
p39
cnumpy.core.multiarray
scalar
p40
(cnumpy
dtype
p41
(S'i4'
p42
I0
I1
tp43
Rp44
(I3
S'<'
p45
NNNI-1
I-1
I0
tp46
bS'\xb0\x13\x00\x00'
p47
tp48
Rp49
sS'use_nesterov'
p50
I01
sS'num_initalize_layers'
p51
I1
sS'clip_gradients'
p52
F5.0
sS'conv_kernel_regularizer_scale'
p53
F0.0001
sS'initial_learning_rate'
p54
F0.0001
sS'num_attend_layers'
p55
I2
sS'save_dir'
p56
S'./models/'
p57
sS'save_period'
p58
I1000
sb.